; Function Attrs: mustprogress nounwind uwtable
define dso_local noundef range(i32 0, 11) i32 @_ZNK4llvm11MCSymbolELF10getBindingEv(ptr nocapture noundef nonnull align 8 dereferenceable(40) %0) local_unnamed_addr #1 align 2 {
  %2 = getelementptr inbounds nuw i8, ptr %0, i64 8
  %3 = load i64, ptr %2, align 8
  %4 = and i64 %3, 17592186044416
  %.not = icmp eq i64 %4, 0
  br i1 %.not, label %6, label %switch.lookup

switch.lookup:                                    ; preds = %1
  %sum.shift = lshr i64 %3, 35
  %5 = and i64 %sum.shift, 3
  %switch.gep = getelementptr inbounds [4 x i32], ptr @switch.table._ZNK4llvm11MCSymbolELF10getBindingEv, i64 0, i64 %5
  %switch.load = load i32, ptr %switch.gep, align 4
  br label %_ZNK4llvm8MCSymbol9isDefinedEv.exit.thread

6:                                                ; preds = %1
  %7 = load ptr, ptr %0, align 8
  %.not.i.i.i = icmp eq ptr %7, null
  br i1 %.not.i.i.i, label %8, label %_ZNK4llvm8MCSymbol9isDefinedEv.exit.thread

8:                                                ; preds = %6
  %9 = and i64 %3, 28800
  %or.cond.not.i.i.i = icmp eq i64 %9, 8192
  br i1 %or.cond.not.i.i.i, label %_ZNK4llvm8MCSymbol9isDefinedEv.exit, label %_ZNK4llvm8MCSymbol9isDefinedEv.exit.thread3

_ZNK4llvm8MCSymbol9isDefinedEv.exit:              ; preds = %8
  %10 = or i64 %3, 8
  store i64 %10, ptr %2, align 8
  %11 = getelementptr inbounds nuw i8, ptr %0, i64 24
  %12 = load ptr, ptr %11, align 8
  %13 = tail call noundef ptr @_ZNK4llvm6MCExpr22findAssociatedFragmentEv(ptr noundef nonnull align 8 dereferenceable(16) %12) #4
  store ptr %13, ptr %0, align 8
  %.not5 = icmp eq ptr %13, null
  br i1 %.not5, label %_ZNK4llvm8MCSymbol9isDefinedEv.exit._ZNK4llvm8MCSymbol9isDefinedEv.exit.thread3_crit_edge, label %_ZNK4llvm8MCSymbol9isDefinedEv.exit.thread

_ZNK4llvm8MCSymbol9isDefinedEv.exit._ZNK4llvm8MCSymbol9isDefinedEv.exit.thread3_crit_edge: ; preds = %_ZNK4llvm8MCSymbol9isDefinedEv.exit
  %.pre = load i64, ptr %2, align 8
  br label %_ZNK4llvm8MCSymbol9isDefinedEv.exit.thread3

_ZNK4llvm8MCSymbol9isDefinedEv.exit.thread3:      ; preds = %_ZNK4llvm8MCSymbol9isDefinedEv.exit._ZNK4llvm8MCSymbol9isDefinedEv.exit.thread3_crit_edge, %8
  %14 = phi i64 [ %.pre, %_ZNK4llvm8MCSymbol9isDefinedEv.exit._ZNK4llvm8MCSymbol9isDefinedEv.exit.thread3_crit_edge ], [ %3, %8 ]
  %15 = and i64 %14, 2048
  %.not6 = icmp eq i64 %15, 0
  br i1 %.not6, label %16, label %_ZNK4llvm8MCSymbol9isDefinedEv.exit.thread

16:                                               ; preds = %_ZNK4llvm8MCSymbol9isDefinedEv.exit.thread3
  %17 = and i64 %14, 8796093022208
  %.not7 = icmp eq i64 %17, 0
  br i1 %.not7, label %18, label %_ZNK4llvm8MCSymbol9isDefinedEv.exit.thread

18:                                               ; preds = %16
  %19 = and i64 %14, 4398046511104
  %.not8 = icmp eq i64 %19, 0
  %. = zext i1 %.not8 to i32
  br label %_ZNK4llvm8MCSymbol9isDefinedEv.exit.thread

_ZNK4llvm8MCSymbol9isDefinedEv.exit.thread:       ; preds = %switch.lookup, %6, %18, %16, %_ZNK4llvm8MCSymbol9isDefinedEv.exit.thread3, %_ZNK4llvm8MCSymbol9isDefinedEv.exit
  %.0 = phi i32 [ 0, %_ZNK4llvm8MCSymbol9isDefinedEv.exit ], [ 1, %_ZNK4llvm8MCSymbol9isDefinedEv.exit.thread3 ], [ 2, %16 ], [ %., %18 ], [ 0, %6 ], [ %switch.load, %switch.lookup ]
  ret i32 %.0
}